target datalayout = "e-m:e-p270:32:32-p271:32:32-p272:64:64-i64:64-i128:128-f80:128-n8:16:32:64-S128"
target triple = "x86_64-pc-linux-gnu"

%struct._generic_SUNAdaptController_Ops = type { ptr, ptr, ptr, ptr, ptr, ptr, ptr, ptr, ptr, ptr, ptr }
%struct._generic_SUNAdaptController = type { ptr, ptr, ptr }

; Function Attrs: nounwind uwtable
define i32 @SUNAdaptController_UpdateH(ptr noundef %0, double noundef %1, double noundef %2) #0 {
  %4 = alloca i32, align 4
  %5 = alloca ptr, align 8
  %6 = alloca double, align 8
  %7 = alloca double, align 8
  %8 = alloca i32, align 4
  %9 = alloca i32, align 4
  %10 = alloca ptr, align 8
  store ptr %0, ptr %5, align 8, !tbaa !8
  store double %1, ptr %6, align 8, !tbaa !28
  store double %2, ptr %7, align 8, !tbaa !28
  call void @llvm.lifetime.start.p0(i64 4, ptr %8) #4
  store i32 0, ptr %8, align 4, !tbaa !30
  %11 = load ptr, ptr %5, align 8, !tbaa !8
  %12 = icmp eq ptr %11, null
  br i1 %12, label %13, label %14

13:                                               ; preds = %3
  store i32 -9999, ptr %4, align 4
  store i32 1, ptr %9, align 4
  br label %36

14:                                               ; preds = %3
  call void @llvm.lifetime.start.p0(i64 8, ptr %10) #4
  %15 = load ptr, ptr %5, align 8, !tbaa !8
  %16 = getelementptr inbounds nuw %struct._generic_SUNAdaptController, ptr %15, i32 0, i32 2
  %17 = load ptr, ptr %16, align 8, !tbaa !27
  store ptr %17, ptr %10, align 8, !tbaa !3
  %18 = load ptr, ptr %5, align 8, !tbaa !8
  %19 = getelementptr inbounds nuw %struct._generic_SUNAdaptController, ptr %18, i32 0, i32 1
  %20 = load ptr, ptr %19, align 8, !tbaa !24
  %21 = getelementptr inbounds nuw %struct._generic_SUNAdaptController_Ops, ptr %20, i32 0, i32 8
  %22 = load ptr, ptr %21, align 8, !tbaa !21
  %23 = icmp ne ptr %22, null
  br i1 %23, label %24, label %34

24:                                               ; preds = %14
  %25 = load ptr, ptr %5, align 8, !tbaa !8
  %26 = getelementptr inbounds nuw %struct._generic_SUNAdaptController, ptr %25, i32 0, i32 1
  %27 = load ptr, ptr %26, align 8, !tbaa !24
  %28 = getelementptr inbounds nuw %struct._generic_SUNAdaptController_Ops, ptr %27, i32 0, i32 8
  %29 = load ptr, ptr %28, align 8, !tbaa !21
  %30 = load ptr, ptr %5, align 8, !tbaa !8
  %31 = load double, ptr %6, align 8, !tbaa !28
  %32 = load double, ptr %7, align 8, !tbaa !28
  %33 = call i32 %29(ptr noundef %30, double noundef %31, double noundef %32)
  store i32 %33, ptr %8, align 4, !tbaa !30
  br label %34

34:                                               ; preds = %24, %14
  %35 = load i32, ptr %8, align 4, !tbaa !30
  store i32 %35, ptr %4, align 4
  store i32 1, ptr %9, align 4
  call void @llvm.lifetime.end.p0(i64 8, ptr %10) #4
  br label %36

36:                                               ; preds = %34, %13
  call void @llvm.lifetime.end.p0(i64 4, ptr %8) #4
  %37 = load i32, ptr %4, align 4
  ret i32 %37
}